; ModuleID = 'bench/abc/original/ifMatch2.ll'
source_filename = "bench/abc/original/ifMatch2.ll"
target datalayout = "e-m:e-p270:32:32-p271:32:32-p272:64:64-i64:64-i128:128-f80:128-n8:16:32:64-S128"
target triple = "x86_64-pc-linux-gnu"

; Function Attrs: mustprogress nofree norecurse nosync nounwind willreturn memory(none) uwtable
define void @Bat_ManFuncSetupTable() local_unnamed_addr #0 {
  ret void
}

; Function Attrs: mustprogress nofree norecurse nosync nounwind willreturn memory(none) uwtable
define void @Bat_ManFuncSetdownTable() local_unnamed_addr #0 {
  ret void
}

; Function Attrs: mustprogress nofree norecurse nosync nounwind willreturn memory(none) uwtable
define noundef i32 @Bat_ManCellFuncLookup(ptr noundef readnone captures(none) %0, ptr noundef readnone captures(none) %1, i32 noundef %2, i32 noundef %3, ptr noundef readnone captures(none) %4) local_unnamed_addr #0 {
  ret i32 1
}


!llvm.module.flags = !{!0, !1, !2}

!0 = !{i32 1, !"wchar_size", i32 4}
!1 = !{i32 8, !"PIC Level", i32 2}
!2 = !{i32 7, !"uwtable", i32 2}
